target datalayout = "e-m:e-p270:32:32-p271:32:32-p272:64:64-i64:64-i128:128-f80:128-n8:16:32:64-S128"
target triple = "x86_64-pc-linux-gnu"

; Function Attrs: nounwind uwtable
define internal void @ignore_slash_filepipe(ptr noundef %0) #0 {
  %2 = alloca ptr, align 8
  %3 = alloca ptr, align 8
  store ptr %0, ptr %2, align 8
  call void @llvm.lifetime.start.p0(i64 8, ptr %3) #10
  %4 = load ptr, ptr %2, align 8
  %5 = call ptr @psql_scan_slash_option(ptr noundef %4, i32 noundef 3, ptr noundef null, i1 noundef zeroext false)
  store ptr %5, ptr %3, align 8
  %6 = load ptr, ptr %3, align 8
  call void @free(ptr noundef %6) #10
  call void @llvm.lifetime.end.p0(i64 8, ptr %3) #10
  ret void
}

; Function Attrs: nounwind uwtable
define internal i32 @exec_command_out(ptr noundef %0, i1 noundef zeroext %1) #0 {
  %3 = alloca ptr, align 8
  %4 = alloca i8, align 1
  %5 = alloca i8, align 1
  %6 = alloca ptr, align 8
  store ptr %0, ptr %3, align 8
  %7 = zext i1 %1 to i8
  store i8 %7, ptr %4, align 1
  call void @llvm.lifetime.start.p0(i64 1, ptr %5) #10
  store i8 1, ptr %5, align 1
  %8 = load i8, ptr %4, align 1, !range !4, !noundef !5
  %9 = trunc i8 %8 to i1
  br i1 %9, label %10, label %17

10:                                               ; preds = %2
  call void @llvm.lifetime.start.p0(i64 8, ptr %6) #10
  %11 = load ptr, ptr %3, align 8
  %12 = call ptr @psql_scan_slash_option(ptr noundef %11, i32 noundef 3, ptr noundef null, i1 noundef zeroext true)
  store ptr %12, ptr %6, align 8
  call void @expand_tilde(ptr noundef %6)
  %13 = load ptr, ptr %6, align 8
  %14 = call zeroext i1 @setQFout(ptr noundef %13)
  %15 = zext i1 %14 to i8
  store i8 %15, ptr %5, align 1
  %16 = load ptr, ptr %6, align 8
  call void @free(ptr noundef %16) #10
  call void @llvm.lifetime.end.p0(i64 8, ptr %6) #10
  br label %19

17:                                               ; preds = %2
  %18 = load ptr, ptr %3, align 8
  call void @ignore_slash_filepipe(ptr noundef %18)
  br label %19

19:                                               ; preds = %17, %10
  %20 = load i8, ptr %5, align 1, !range !4, !noundef !5
  %21 = trunc i8 %20 to i1
  %22 = select i1 %21, i32 2, i32 5
  call void @llvm.lifetime.end.p0(i64 1, ptr %5) #10
  ret i32 %22
}