; Function Attrs: nounwind uwtable
define internal fastcc range(i32 2, 6) i32 @exec_command_out(ptr noundef %0, i1 noundef zeroext %1) unnamed_addr #0 {
  %3 = alloca ptr, align 8
  br i1 %1, label %4, label %10

4:                                                ; preds = %2
  call void @llvm.lifetime.start.p0(i64 8, ptr nonnull %3) #16
  %5 = tail call ptr @psql_scan_slash_option(ptr noundef %0, i32 noundef 3, ptr noundef null, i1 noundef zeroext true) #16
  store ptr %5, ptr %3, align 8
  call void @expand_tilde(ptr noundef nonnull %3) #16
  %6 = load ptr, ptr %3, align 8
  %7 = call zeroext i1 @setQFout(ptr noundef %6) #16
  %8 = load ptr, ptr %3, align 8
  call void @free(ptr noundef %8) #16
  call void @llvm.lifetime.end.p0(i64 8, ptr nonnull %3) #16
  %9 = select i1 %7, i32 2, i32 5
  br label %12

10:                                               ; preds = %2
  %11 = tail call ptr @psql_scan_slash_option(ptr noundef %0, i32 noundef 3, ptr noundef null, i1 noundef zeroext false) #16
  tail call void @free(ptr noundef %11) #16
  br label %12

12:                                               ; preds = %10, %4
  %.0 = phi i32 [ %9, %4 ], [ 2, %10 ]
  ret i32 %.0
}